; Function Attrs: mustprogress uwtable
define internal void @"_ZNSt17_Function_handlerIF7svectorIN3sat7literalEjEvEZN3smt15theory_datatype26assert_update_field_axiomsEPNS5_5enodeEE3$_0E9_M_invokeERKSt9_Any_data"(ptr noalias sret(%class.svector.49) align 8 %agg.result, ptr nocapture noundef nonnull readonly align 8 dereferenceable(16) %__functor) #3 align 2 {
entry:
  %call.val = load ptr, ptr %__functor, align 8
  tail call void @llvm.experimental.noalias.scope.decl(metadata !51)
  tail call void @llvm.experimental.noalias.scope.decl(metadata !54)
  tail call void @llvm.experimental.noalias.scope.decl(metadata !57)
  store ptr null, ptr %agg.result, align 8, !alias.scope !60
  br label %for.body.i.i.i.i.i

for.bodythread-pre-split.i.i.i.i.i:               ; preds = %_ZN6vectorIN3sat7literalELb0EjE9push_backERKS1_.exit.i.i.i.i.i
  %.pr.i.i.i.i.i = load ptr, ptr %agg.result, align 8, !alias.scope !60
  br label %for.body.i.i.i.i.i

for.body.i.i.i.i.i:                               ; preds = %for.bodythread-pre-split.i.i.i.i.i, %entry
  %0 = phi ptr [ %.pr.i.i.i.i.i, %for.bodythread-pre-split.i.i.i.i.i ], [ null, %entry ]
  %indvars.iv.i.i.i.i.i = phi i64 [ %indvars.iv.next.i.i.i.i.i, %for.bodythread-pre-split.i.i.i.i.i ], [ 0, %entry ]
  %arrayidx.i.i.i.i.i = getelementptr inbounds %"class.sat::literal", ptr %call.val, i64 %indvars.iv.i.i.i.i.i
  %cmp.i.i.i.i.i.i = icmp eq ptr %0, null
  br i1 %cmp.i.i.i.i.i.i, label %if.then.i.i.i.i.i.i, label %lor.lhs.false.i.i.i.i.i.i

lor.lhs.false.i.i.i.i.i.i:                        ; preds = %for.body.i.i.i.i.i
  %arrayidx.i.i.i.i.i.i = getelementptr inbounds i8, ptr %0, i64 -4
  %1 = load i32, ptr %arrayidx.i.i.i.i.i.i, align 4
  %arrayidx4.i.i.i.i.i.i = getelementptr inbounds i8, ptr %0, i64 -8
  %2 = load i32, ptr %arrayidx4.i.i.i.i.i.i, align 4
  %cmp5.i.i.i.i.i.i = icmp eq i32 %1, %2
  br i1 %cmp5.i.i.i.i.i.i, label %if.then.i.i.i.i.i.i, label %_ZN6vectorIN3sat7literalELb0EjE9push_backERKS1_.exit.i.i.i.i.i

if.then.i.i.i.i.i.i:                              ; preds = %lor.lhs.false.i.i.i.i.i.i, %for.body.i.i.i.i.i
  tail call void @_ZN6vectorIN3sat7literalELb0EjE13expand_vectorEv(ptr noundef nonnull align 8 dereferenceable(8) %agg.result)
  %.pre.i.i.i.i.i.i = load ptr, ptr %agg.result, align 8, !alias.scope !60
  %arrayidx8.phi.trans.insert.i.i.i.i.i.i = getelementptr inbounds i8, ptr %.pre.i.i.i.i.i.i, i64 -4
  %.pre1.i.i.i.i.i.i = load i32, ptr %arrayidx8.phi.trans.insert.i.i.i.i.i.i, align 4
  br label %_ZN6vectorIN3sat7literalELb0EjE9push_backERKS1_.exit.i.i.i.i.i

_ZN6vectorIN3sat7literalELb0EjE9push_backERKS1_.exit.i.i.i.i.i: ; preds = %if.then.i.i.i.i.i.i, %lor.lhs.false.i.i.i.i.i.i
  %3 = phi i32 [ %.pre1.i.i.i.i.i.i, %if.then.i.i.i.i.i.i ], [ %1, %lor.lhs.false.i.i.i.i.i.i ]
  %4 = phi ptr [ %.pre.i.i.i.i.i.i, %if.then.i.i.i.i.i.i ], [ %0, %lor.lhs.false.i.i.i.i.i.i ]
  %idx.ext.i.i.i.i.i.i = zext i32 %3 to i64
  %add.ptr.i.i.i.i.i.i = getelementptr inbounds %"class.sat::literal", ptr %4, i64 %idx.ext.i.i.i.i.i.i
  %5 = load i32, ptr %arrayidx.i.i.i.i.i, align 4, !noalias !60
  store i32 %5, ptr %add.ptr.i.i.i.i.i.i, align 4
  %6 = load ptr, ptr %agg.result, align 8, !alias.scope !60
  %arrayidx10.i.i.i.i.i.i = getelementptr inbounds i8, ptr %6, i64 -4
  %7 = load i32, ptr %arrayidx10.i.i.i.i.i.i, align 4
  %inc.i.i.i.i.i.i = add i32 %7, 1
  store i32 %inc.i.i.i.i.i.i, ptr %arrayidx10.i.i.i.i.i.i, align 4
  %indvars.iv.next.i.i.i.i.i = add nuw nsw i64 %indvars.iv.i.i.i.i.i, 1
  %exitcond.not.i.i.i.i.i = icmp eq i64 %indvars.iv.next.i.i.i.i.i, 2
  br i1 %exitcond.not.i.i.i.i.i, label %"_ZSt10__invoke_rI7svectorIN3sat7literalEjERZN3smt15theory_datatype26assert_update_field_axiomsEPNS4_5enodeEE3$_0JEENSt9enable_ifIX16is_invocable_r_vIT_T0_DpT1_EESB_E4typeEOSC_DpOSD_.exit", label %for.bodythread-pre-split.i.i.i.i.i, !llvm.loop !23

"_ZSt10__invoke_rI7svectorIN3sat7literalEjERZN3smt15theory_datatype26assert_update_field_axiomsEPNS4_5enodeEE3$_0JEENSt9enable_ifIX16is_invocable_r_vIT_T0_DpT1_EESB_E4typeEOSC_DpOSD_.exit": ; preds = %_ZN6vectorIN3sat7literalELb0EjE9push_backERKS1_.exit.i.i.i.i.i
  ret void
}